; Function Attrs: nounwind uwtable
define noundef ptr @l_Std_Time_Weekday_noConfusion___rarg___lambda__1___boxed(ptr noundef returned %0) #1 {
  %2 = ptrtoint ptr %0 to i64
  %3 = and i64 %2, 1
  %.not.i3 = icmp eq i64 %3, 0
  br i1 %.not.i3, label %4, label %lean_dec.exit

4:                                                ; preds = %1
  %.val.i.i = load i32, ptr %0, align 4, !tbaa !4
  %5 = icmp sgt i32 %.val.i.i, 0
  br i1 %5, label %6, label %8, !prof !9

6:                                                ; preds = %4
  %7 = add nuw i32 %.val.i.i, 1
  store i32 %7, ptr %0, align 4, !tbaa !4
  br label %10

8:                                                ; preds = %4
  %.not.i.i = icmp eq i32 %.val.i.i, 0
  br i1 %.not.i.i, label %lean_dec.exit, label %9

9:                                                ; preds = %8
  tail call void @lean_inc_ref_cold(ptr noundef nonnull %0) #7
  %.pr = load i32, ptr %0, align 4, !tbaa !4
  br label %10

10:                                               ; preds = %6, %9
  %11 = phi i32 [ %7, %6 ], [ %.pr, %9 ]
  %12 = icmp sgt i32 %11, 1
  br i1 %12, label %13, label %15, !prof !14

13:                                               ; preds = %10
  %14 = add nsw i32 %11, -1
  store i32 %14, ptr %0, align 4, !tbaa !4
  br label %lean_dec.exit

15:                                               ; preds = %10
  %.not.i = icmp eq i32 %11, 0
  br i1 %.not.i, label %lean_dec.exit, label %16

16:                                               ; preds = %15
  tail call void @lean_dec_ref_cold(ptr noundef nonnull %0) #7
  br label %lean_dec.exit

lean_dec.exit:                                    ; preds = %8, %16, %15, %13, %1
  ret ptr %0
}